; Function Attrs: mustprogress uwtable
define hidden noundef nonnull ptr @_ZN2cv5utils7logging13LogTagManager9NameTable24internal_getFullNameInfoEm(ptr noundef nonnull readonly align 8 captures(none) dereferenceable(272) %0, i64 noundef %1) local_unnamed_addr #0 align 2 {
  %3 = getelementptr inbounds nuw i8, ptr %0, i64 8
  %4 = load ptr, ptr %3, align 8, !tbaa !109
  %5 = load ptr, ptr %0, align 8, !tbaa !98
  %6 = ptrtoint ptr %4 to i64
  %7 = ptrtoint ptr %5 to i64
  %8 = sub i64 %6, %7
  %9 = ashr exact i64 %8, 4
  %.not.i.i = icmp ult i64 %1, %9
  br i1 %.not.i.i, label %_ZNSt6vectorIN2cv5utils7logging13LogTagManager12FullNameInfoESaIS4_EE2atEm.exit, label %10

10:                                               ; preds = %2
  tail call void (ptr, ...) @_ZSt24__throw_out_of_range_fmtPKcz(ptr noundef nonnull @.str.14, i64 noundef %1, i64 noundef %9) #25
  unreachable

_ZNSt6vectorIN2cv5utils7logging13LogTagManager12FullNameInfoESaIS4_EE2atEm.exit: ; preds = %2
  %11 = getelementptr inbounds nuw %"struct.cv::utils::logging::LogTagManager::FullNameInfo", ptr %5, i64 %1
  ret ptr %11
}